target datalayout = "e-m:e-p270:32:32-p271:32:32-p272:64:64-i64:64-i128:128-f80:128-n8:16:32:64-S128"
target triple = "x86_64-pc-linux-gnu"

%"class.doctest::Context" = type { ptr }

@_ZN7doctest7ContextC1EiPKPKc = dso_local unnamed_addr alias void (ptr, i32, ptr), ptr @_ZN7doctest7ContextC2EiPKPKc
@_ZN7doctest7ContextD1Ev = dso_local unnamed_addr alias void (ptr), ptr @_ZN7doctest7ContextD2Ev

; Function Attrs: mustprogress norecurse uwtable
define dso_local noundef i32 @main(i32 noundef %0, ptr noundef %1) #20 personality ptr @__gxx_personality_v0 {
  %3 = alloca i32, align 4
  %4 = alloca i32, align 4
  %5 = alloca ptr, align 8
  %6 = alloca %"class.doctest::Context", align 8
  %7 = alloca ptr, align 8
  %8 = alloca i32, align 4
  store i32 0, ptr %3, align 4
  store i32 %0, ptr %4, align 4, !tbaa !4
  store ptr %1, ptr %5, align 8, !tbaa !308
  call void @llvm.lifetime.start.p0(i64 8, ptr %6) #7
  %9 = load i32, ptr %4, align 4, !tbaa !4
  %10 = load ptr, ptr %5, align 8, !tbaa !308
  call void @_ZN7doctest7ContextC1EiPKPKc(ptr noundef nonnull align 8 dereferenceable(8) %6, i32 noundef %9, ptr noundef %10)
  %11 = invoke noundef i32 @_ZN7doctest7Context3runEv(ptr noundef nonnull align 8 dereferenceable(8) %6)
          to label %12 unwind label %14

12:                                               ; preds = %2
  store i32 %11, ptr %3, align 4
  call void @_ZN7doctest7ContextD1Ev(ptr noundef nonnull align 8 dereferenceable(8) %6) #7
  call void @llvm.lifetime.end.p0(i64 8, ptr %6) #7
  %13 = load i32, ptr %3, align 4
  ret i32 %13

14:                                               ; preds = %2
  %15 = landingpad { ptr, i32 }
          cleanup
  %16 = extractvalue { ptr, i32 } %15, 0
  store ptr %16, ptr %7, align 8
  %17 = extractvalue { ptr, i32 } %15, 1
  store i32 %17, ptr %8, align 4
  call void @_ZN7doctest7ContextD1Ev(ptr noundef nonnull align 8 dereferenceable(8) %6) #7
  call void @llvm.lifetime.end.p0(i64 8, ptr %6) #7
  br label %18

18:                                               ; preds = %14
  %19 = load ptr, ptr %7, align 8
  %20 = load i32, ptr %8, align 4
  %21 = insertvalue { ptr, i32 } poison, ptr %19, 0
  %22 = insertvalue { ptr, i32 } %21, i32 %20, 1
  resume { ptr, i32 } %22
}