; Function Attrs: mustprogress norecurse uwtable
define dso_local noundef range(i32 0, 2) i32 @main(i32 noundef %0, ptr noundef %1) local_unnamed_addr #37 personality ptr @__gxx_personality_v0 {
  %3 = alloca %"class.doctest::Context", align 8
  call void @llvm.lifetime.start.p0(i64 8, ptr nonnull %3) #49
  call void @_ZN7doctest7ContextC2EiPKPKc(ptr noundef nonnull align 8 dereferenceable(8) %3, i32 noundef %0, ptr noundef %1)
  %4 = invoke noundef i32 @_ZN7doctest7Context3runEv(ptr noundef nonnull align 8 dereferenceable(8) %3)
          to label %5 unwind label %13

5:                                                ; preds = %2
  %6 = load ptr, ptr @_ZN7doctest6detail4g_csE, align 8, !tbaa !73
  %7 = load ptr, ptr %3, align 8, !tbaa !323
  %8 = icmp eq ptr %6, %7
  br i1 %8, label %9, label %10

9:                                                ; preds = %5
  store ptr null, ptr @_ZN7doctest6detail4g_csE, align 8, !tbaa !73
  br label %10

10:                                               ; preds = %9, %5
  %11 = icmp eq ptr %7, null
  br i1 %11, label %_ZN7doctest7ContextD2Ev.exit, label %12

12:                                               ; preds = %10
  tail call void @_ZN7doctest6detail12ContextStateD2Ev(ptr noundef nonnull align 8 dereferenceable(4489) %7) #49
  tail call void @_ZdlPvm(ptr noundef nonnull %7, i64 noundef 4496) #48
  br label %_ZN7doctest7ContextD2Ev.exit

_ZN7doctest7ContextD2Ev.exit:                     ; preds = %10, %12
  call void @llvm.lifetime.end.p0(i64 8, ptr nonnull %3) #49
  ret i32 %4

13:                                               ; preds = %2
  %14 = landingpad { ptr, i32 }
          cleanup
  call void @_ZN7doctest7ContextD2Ev(ptr noundef nonnull align 8 dereferenceable(8) %3) #49
  call void @llvm.lifetime.end.p0(i64 8, ptr nonnull %3) #49
  resume { ptr, i32 } %14
}